target datalayout = "e-m:e-p270:32:32-p271:32:32-p272:64:64-i64:64-i128:128-f80:128-n8:16:32:64-S128"
target triple = "x86_64-pc-linux-gnu"

%struct.rtf_state = type { ptr, ptr, ptr, ptr, i64, i64, i64, i32, i32, i32, [33 x i8] }
%struct.stack = type { ptr, i64, i64, i64, i32 }

@base_state = internal constant %struct.rtf_state { ptr null, ptr null, ptr null, ptr null, i64 0, i64 0, i64 0, i32 0, i32 0, i32 0, [33 x i8] c"                              \00\00\00" }, align 8
@.str.11 = private unnamed_addr constant [43 x i8] c"Warning: attempt to pop from empty stack!\0A\00", align 1

; Function Attrs: nounwind uwtable
define internal i32 @pop_state(ptr noundef %0, ptr noundef %1) #0 {
  %3 = alloca i32, align 4
  %4 = alloca ptr, align 8
  %5 = alloca ptr, align 8
  %6 = alloca i64, align 8
  %7 = alloca i32, align 4
  store ptr %0, ptr %4, align 8
  store ptr %1, ptr %5, align 8
  %8 = load ptr, ptr %4, align 8
  %9 = getelementptr inbounds %struct.stack, ptr %8, i32 0, i32 1
  %10 = load i64, ptr %9, align 8
  %11 = add i64 %10, -1
  store i64 %11, ptr %9, align 8
  %12 = load ptr, ptr %5, align 8
  %13 = getelementptr inbounds %struct.rtf_state, ptr %12, i32 0, i32 4
  %14 = load i64, ptr %13, align 8
  %15 = icmp ne i64 %14, 0
  br i1 %15, label %16, label %31

16:                                               ; preds = %2
  %17 = load ptr, ptr %5, align 8
  %18 = getelementptr inbounds %struct.rtf_state, ptr %17, i32 0, i32 4
  %19 = load i64, ptr %18, align 8
  %20 = sub i64 %19, 1
  store i64 %20, ptr %6, align 8
  %21 = load ptr, ptr %5, align 8
  %22 = getelementptr inbounds %struct.rtf_state, ptr %21, i32 0, i32 9
  %23 = load i32, ptr %22, align 8
  store i32 %23, ptr %7, align 4
  %24 = load ptr, ptr %5, align 8
  call void @llvm.memcpy.p0.p0.i64(ptr align 8 %24, ptr align 8 @base_state, i64 104, i1 false)
  %25 = load i64, ptr %6, align 8
  %26 = load ptr, ptr %5, align 8
  %27 = getelementptr inbounds %struct.rtf_state, ptr %26, i32 0, i32 4
  store i64 %25, ptr %27, align 8
  %28 = load i32, ptr %7, align 4
  %29 = load ptr, ptr %5, align 8
  %30 = getelementptr inbounds %struct.rtf_state, ptr %29, i32 0, i32 9
  store i32 %28, ptr %30, align 8
  store i32 0, ptr %3, align 4
  br label %56

31:                                               ; preds = %2
  %32 = load ptr, ptr %4, align 8
  %33 = getelementptr inbounds %struct.stack, ptr %32, i32 0, i32 2
  %34 = load i64, ptr %33, align 8
  %35 = icmp ne i64 %34, 0
  br i1 %35, label %46, label %36

36:                                               ; preds = %31
  %37 = load ptr, ptr %4, align 8
  %38 = getelementptr inbounds %struct.stack, ptr %37, i32 0, i32 4
  %39 = load i32, ptr %38, align 8
  %40 = icmp ne i32 %39, 0
  br i1 %40, label %44, label %41

41:                                               ; preds = %36
  call void (ptr, ...) @cli_dbgmsg(ptr noundef @.str.11)
  %42 = load ptr, ptr %4, align 8
  %43 = getelementptr inbounds %struct.stack, ptr %42, i32 0, i32 4
  store i32 1, ptr %43, align 8
  br label %44

44:                                               ; preds = %41, %36
  %45 = load ptr, ptr %5, align 8
  call void @llvm.memcpy.p0.p0.i64(ptr align 8 %45, ptr align 8 @base_state, i64 104, i1 false)
  store i32 0, ptr %3, align 4
  br label %56

46:                                               ; preds = %31
  %47 = load ptr, ptr %5, align 8
  %48 = load ptr, ptr %4, align 8
  %49 = getelementptr inbounds %struct.stack, ptr %48, i32 0, i32 0
  %50 = load ptr, ptr %49, align 8
  %51 = load ptr, ptr %4, align 8
  %52 = getelementptr inbounds %struct.stack, ptr %51, i32 0, i32 2
  %53 = load i64, ptr %52, align 8
  %54 = add i64 %53, -1
  store i64 %54, ptr %52, align 8
  %55 = getelementptr inbounds %struct.rtf_state, ptr %50, i64 %54
  call void @llvm.memcpy.p0.p0.i64(ptr align 8 %47, ptr align 8 %55, i64 104, i1 false)
  store i32 0, ptr %3, align 4
  br label %56

56:                                               ; preds = %46, %44, %16
  %57 = load i32, ptr %3, align 4
  ret i32 %57
}

; Function Attrs: nounwind uwtable
define internal void @cleanup_stack(ptr noundef %0, ptr noundef %1, ptr noundef %2) #0 {
  %4 = alloca ptr, align 8
  %5 = alloca ptr, align 8
  %6 = alloca ptr, align 8
  store ptr %0, ptr %4, align 8
  store ptr %1, ptr %5, align 8
  store ptr %2, ptr %6, align 8
  %7 = load ptr, ptr %4, align 8
  %8 = icmp ne ptr %7, null
  br i1 %8, label %9, label %14

9:                                                ; preds = %3
  %10 = load ptr, ptr %4, align 8
  %11 = getelementptr inbounds %struct.stack, ptr %10, i32 0, i32 0
  %12 = load ptr, ptr %11, align 8
  %13 = icmp ne ptr %12, null
  br i1 %13, label %15, label %14

14:                                               ; preds = %9, %3
  br label %47

15:                                               ; preds = %9
  br label %16

16:                                               ; preds = %46, %15
  %17 = load ptr, ptr %4, align 8
  %18 = icmp ne ptr %17, null
  br i1 %18, label %19, label %24

19:                                               ; preds = %16
  %20 = load ptr, ptr %4, align 8
  %21 = getelementptr inbounds %struct.stack, ptr %20, i32 0, i32 2
  %22 = load i64, ptr %21, align 8
  %23 = icmp ne i64 %22, 0
  br label %24

24:                                               ; preds = %19, %16
  %25 = phi i1 [ false, %16 ], [ %23, %19 ]
  br i1 %25, label %26, label %47

26:                                               ; preds = %24
  %27 = load ptr, ptr %4, align 8
  %28 = load ptr, ptr %5, align 8
  %29 = call i32 @pop_state(ptr noundef %27, ptr noundef %28)
  %30 = load ptr, ptr %5, align 8
  %31 = getelementptr inbounds %struct.rtf_state, ptr %30, i32 0, i32 3
  %32 = load ptr, ptr %31, align 8
  %33 = icmp ne ptr %32, null
  br i1 %33, label %34, label %46

34:                                               ; preds = %26
  %35 = load ptr, ptr %5, align 8
  %36 = getelementptr inbounds %struct.rtf_state, ptr %35, i32 0, i32 2
  %37 = load ptr, ptr %36, align 8
  %38 = icmp ne ptr %37, null
  br i1 %38, label %39, label %46

39:                                               ; preds = %34
  %40 = load ptr, ptr %5, align 8
  %41 = getelementptr inbounds %struct.rtf_state, ptr %40, i32 0, i32 2
  %42 = load ptr, ptr %41, align 8
  %43 = load ptr, ptr %5, align 8
  %44 = load ptr, ptr %6, align 8
  %45 = call i32 %42(ptr noundef %43, ptr noundef %44)
  br label %46

46:                                               ; preds = %39, %34, %26
  br label %16

47:                                               ; preds = %24, %14
  ret void
}