; Function Attrs: nounwind uwtable
define internal fastcc void @cleanup_stack(ptr noundef %0, ptr noundef %1, ptr noundef %2) unnamed_addr #0 {
  %.not = icmp eq ptr %0, null
  br i1 %.not, label %.critedge, label %4

4:                                                ; preds = %3
  %5 = load ptr, ptr %0, align 8
  %.not13 = icmp eq ptr %5, null
  br i1 %.not13, label %.critedge, label %.preheader

.preheader:                                       ; preds = %4
  %6 = getelementptr inbounds i8, ptr %0, i64 16
  %7 = load i64, ptr %6, align 8
  %.not1417 = icmp eq i64 %7, 0
  br i1 %.not1417, label %.critedge, label %.lr.ph

.lr.ph:                                           ; preds = %.preheader
  %8 = getelementptr inbounds i8, ptr %0, i64 8
  %9 = getelementptr inbounds i8, ptr %1, i64 32
  %10 = getelementptr inbounds i8, ptr %1, i64 64
  %11 = getelementptr inbounds i8, ptr %1, i64 24
  %12 = getelementptr inbounds i8, ptr %1, i64 16
  br label %13

13:                                               ; preds = %.lr.ph, %27
  %14 = phi i64 [ %7, %.lr.ph ], [ %28, %27 ]
  %15 = load i64, ptr %8, align 8
  %16 = add i64 %15, -1
  store i64 %16, ptr %8, align 8
  %17 = load i64, ptr %9, align 8
  %.not.i = icmp eq i64 %17, 0
  br i1 %.not.i, label %pop_state.exit, label %pop_state.exit.thread

pop_state.exit.thread:                            ; preds = %13
  %18 = add i64 %17, -1
  %19 = load i32, ptr %10, align 8
  tail call void @llvm.memcpy.p0.p0.i64(ptr noundef nonnull align 8 dereferenceable(104) %1, ptr noundef nonnull align 8 dereferenceable(104) @base_state, i64 104, i1 false)
  store i64 %18, ptr %9, align 8
  store i32 %19, ptr %10, align 8
  br label %27

pop_state.exit:                                   ; preds = %13
  %20 = load ptr, ptr %0, align 8
  %21 = add i64 %14, -1
  store i64 %21, ptr %6, align 8
  %22 = getelementptr inbounds %struct.rtf_state, ptr %20, i64 %21
  tail call void @llvm.memcpy.p0.p0.i64(ptr noundef nonnull align 8 dereferenceable(104) %1, ptr noundef nonnull align 8 dereferenceable(104) %22, i64 104, i1 false)
  %.pre = load ptr, ptr %11, align 8
  %.not15 = icmp eq ptr %.pre, null
  br i1 %.not15, label %27, label %23

23:                                               ; preds = %pop_state.exit
  %24 = load ptr, ptr %12, align 8
  %.not16 = icmp eq ptr %24, null
  br i1 %.not16, label %27, label %25

25:                                               ; preds = %23
  %26 = tail call i32 %24(ptr noundef nonnull %1, ptr noundef %2) #9
  br label %27

27:                                               ; preds = %pop_state.exit.thread, %25, %23, %pop_state.exit
  %28 = load i64, ptr %6, align 8
  %.not14 = icmp eq i64 %28, 0
  br i1 %.not14, label %.critedge, label %13

.critedge:                                        ; preds = %27, %.preheader, %3, %4
  ret void
}